target datalayout = "e-m:e-p270:32:32-p271:32:32-p272:64:64-i64:64-i128:128-f80:128-n8:16:32:64-S128"
target triple = "x86_64-pc-linux-gnu"

%"class.google::LogMessage" = type { ptr, ptr }
%"class.std::__exception_ptr::exception_ptr" = type { ptr }
%"class.folly::basic_fbstring" = type { %"class.folly::fbstring_core" }
%"class.folly::fbstring_core" = type { %union.anon }
%union.anon = type { %"struct.folly::fbstring_core<char>::MediumLarge" }
%"struct.folly::fbstring_core<char>::MediumLarge" = type { ptr, i64, i64 }
%"class.std::ios_base" = type { ptr, i64, i64, i32, i32, i32, ptr, %"struct.std::ios_base::_Words", [8 x %"struct.std::ios_base::_Words"], i32, ptr, %"class.std::locale" }
%"struct.std::ios_base::_Words" = type { ptr, i64 }
%"class.std::locale" = type { ptr }

@.str = private unnamed_addr constant [108 x i8] c"generated/home/dtcxzyw/WorkSpace/Projects/compilers/llvm-opt-benchmark/bench/folly/folly/folly/Executor.cpp\00", align 1
@.str.1 = private unnamed_addr constant [18 x i8] c" threw unhandled \00", align 1

; Function Attrs: mustprogress uwtable
define linkonce_odr noundef ptr @_ZNK5folly13fbstring_coreIcE5c_strEv(ptr noundef nonnull align 8 dereferenceable(24) %0) #1 comdat align 2 {
  %2 = alloca ptr, align 8
  %3 = alloca ptr, align 8
  store ptr %0, ptr %2, align 8, !tbaa !27
  %4 = load ptr, ptr %2, align 8
  call void @llvm.lifetime.start.p0(i64 8, ptr %3) #19
  %5 = getelementptr inbounds nuw %"class.folly::fbstring_core", ptr %4, i32 0, i32 0
  %6 = getelementptr inbounds nuw %"struct.folly::fbstring_core<char>::MediumLarge", ptr %5, i32 0, i32 0
  %7 = load ptr, ptr %6, align 8, !tbaa !14
  store ptr %7, ptr %3, align 8, !tbaa !15
  %8 = call noundef zeroext i8 @_ZNK5folly13fbstring_coreIcE8categoryEv(ptr noundef nonnull align 8 dereferenceable(24) %4)
  %9 = icmp eq i8 %8, 0
  br i1 %9, label %10, label %13

10:                                               ; preds = %1
  %11 = getelementptr inbounds nuw %"class.folly::fbstring_core", ptr %4, i32 0, i32 0
  %12 = getelementptr inbounds [24 x i8], ptr %11, i64 0, i64 0
  br label %15

13:                                               ; preds = %1
  %14 = load ptr, ptr %3, align 8, !tbaa !15
  br label %15

15:                                               ; preds = %13, %10
  %16 = phi ptr [ %12, %10 ], [ %14, %13 ]
  store ptr %16, ptr %3, align 8, !tbaa !15
  %17 = load ptr, ptr %3, align 8, !tbaa !15
  call void @llvm.lifetime.end.p0(i64 8, ptr %3) #19
  ret ptr %17
}

; Function Attrs: mustprogress nounwind uwtable
define linkonce_odr noundef zeroext i8 @_ZNK5folly13fbstring_coreIcE8categoryEv(ptr noundef nonnull align 8 dereferenceable(24) %0) #0 comdat align 2 {
  %2 = alloca ptr, align 8
  store ptr %0, ptr %2, align 8, !tbaa !27
  %3 = load ptr, ptr %2, align 8
  %4 = getelementptr inbounds nuw %"class.folly::fbstring_core", ptr %3, i32 0, i32 0
  %5 = getelementptr inbounds nuw [24 x i8], ptr %4, i64 0, i64 23
  %6 = load i8, ptr %5, align 1, !tbaa !14
  %7 = zext i8 %6 to i32
  %8 = and i32 %7, 192
  %9 = trunc i32 %8 to i8
  ret i8 %9
}

; Function Attrs: mustprogress nounwind uwtable
define linkonce_odr noundef i64 @_ZNK5folly13fbstring_coreIcE4sizeEv(ptr noundef nonnull align 8 dereferenceable(24) %0) #0 comdat align 2 {
  %2 = alloca ptr, align 8
  %3 = alloca i64, align 8
  %4 = alloca i64, align 8
  store ptr %0, ptr %2, align 8, !tbaa !27
  %5 = load ptr, ptr %2, align 8
  call void @llvm.lifetime.start.p0(i64 8, ptr %3) #19
  %6 = getelementptr inbounds nuw %"class.folly::fbstring_core", ptr %5, i32 0, i32 0
  %7 = getelementptr inbounds nuw %"struct.folly::fbstring_core<char>::MediumLarge", ptr %6, i32 0, i32 1
  %8 = load i64, ptr %7, align 8, !tbaa !14
  store i64 %8, ptr %3, align 8, !tbaa !29
  call void @llvm.lifetime.start.p0(i64 8, ptr %4) #19
  %9 = getelementptr inbounds nuw %"class.folly::fbstring_core", ptr %5, i32 0, i32 0
  %10 = getelementptr inbounds nuw [24 x i8], ptr %9, i64 0, i64 23
  %11 = load i8, ptr %10, align 1, !tbaa !14
  %12 = zext i8 %11 to i64
  %13 = sub i64 23, %12
  store i64 %13, ptr %4, align 8, !tbaa !29
  %14 = load i64, ptr %4, align 8, !tbaa !29
  %15 = icmp sge i64 %14, 0
  br i1 %15, label %16, label %18

16:                                               ; preds = %1
  %17 = load i64, ptr %4, align 8, !tbaa !29
  br label %20

18:                                               ; preds = %1
  %19 = load i64, ptr %3, align 8, !tbaa !29
  br label %20

20:                                               ; preds = %18, %16
  %21 = phi i64 [ %17, %16 ], [ %19, %18 ]
  store i64 %21, ptr %3, align 8, !tbaa !29
  call void @llvm.lifetime.end.p0(i64 8, ptr %4) #19
  %22 = load i64, ptr %3, align 8, !tbaa !29
  call void @llvm.lifetime.end.p0(i64 8, ptr %3) #19
  ret i64 %22
}

; Function Attrs: mustprogress uwtable
define linkonce_odr noundef ptr @_ZNK5folly14basic_fbstringIcSt11char_traitsIcESaIcENS_13fbstring_coreIcEEE5c_strEv(ptr noundef nonnull align 8 dereferenceable(24) %0) #1 comdat align 2 {
  %2 = alloca ptr, align 8
  store ptr %0, ptr %2, align 8, !tbaa !19
  %3 = load ptr, ptr %2, align 8
  %4 = getelementptr inbounds nuw %"class.folly::basic_fbstring", ptr %3, i32 0, i32 0
  %5 = call noundef ptr @_ZNK5folly13fbstring_coreIcE5c_strEv(ptr noundef nonnull align 8 dereferenceable(24) %4)
  ret ptr %5
}

; Function Attrs: inlinehint mustprogress nounwind uwtable
define linkonce_odr noundef i32 @_ZStorSt12_Ios_IostateS_(i32 noundef %0, i32 noundef %1) #7 comdat {
  %3 = alloca i32, align 4
  %4 = alloca i32, align 4
  store i32 %0, ptr %3, align 4, !tbaa !33
  store i32 %1, ptr %4, align 4, !tbaa !33
  %5 = load i32, ptr %3, align 4, !tbaa !33
  %6 = load i32, ptr %4, align 4, !tbaa !33
  %7 = or i32 %5, %6
  ret i32 %7
}

; Function Attrs: mustprogress nounwind uwtable
define available_externally noundef i32 @_ZNKSt9basic_iosIcSt11char_traitsIcEE7rdstateEv(ptr noundef nonnull align 8 dereferenceable(264) %0) #0 align 2 {
  %2 = alloca ptr, align 8
  store ptr %0, ptr %2, align 8, !tbaa !31
  %3 = load ptr, ptr %2, align 8
  %4 = getelementptr inbounds nuw %"class.std::ios_base", ptr %3, i32 0, i32 5
  %5 = load i32, ptr %4, align 8, !tbaa !35
  ret i32 %5
}

; Function Attrs: mustprogress nounwind uwtable
define linkonce_odr void @_ZN5folly13fbstring_coreIcED2Ev(ptr noundef nonnull align 8 dereferenceable(24) %0) unnamed_addr #0 comdat align 2 {
  %2 = alloca ptr, align 8
  store ptr %0, ptr %2, align 8, !tbaa !27
  %3 = load ptr, ptr %2, align 8
  %4 = call noundef zeroext i8 @_ZNK5folly13fbstring_coreIcE8categoryEv(ptr noundef nonnull align 8 dereferenceable(24) %3)
  %5 = icmp eq i8 %4, 0
  br i1 %5, label %6, label %7

6:                                                ; preds = %1
  br label %8

7:                                                ; preds = %1
  call void @_ZN5folly13fbstring_coreIcE18destroyMediumLargeEv(ptr noundef nonnull align 8 dereferenceable(24) %3) #19
  br label %8

8:                                                ; preds = %7, %6
  ret void
}

; Function Attrs: mustprogress uwtable
define linkonce_odr noundef i64 @_ZNK5folly14basic_fbstringIcSt11char_traitsIcESaIcENS_13fbstring_coreIcEEE4sizeEv(ptr noundef nonnull align 8 dereferenceable(24) %0) #1 comdat align 2 {
  %2 = alloca ptr, align 8
  store ptr %0, ptr %2, align 8, !tbaa !19
  %3 = load ptr, ptr %2, align 8
  %4 = getelementptr inbounds nuw %"class.folly::basic_fbstring", ptr %3, i32 0, i32 0
  %5 = call noundef i64 @_ZNK5folly13fbstring_coreIcE4sizeEv(ptr noundef nonnull align 8 dereferenceable(24) %4)
  ret i64 %5
}

; Function Attrs: mustprogress uwtable
define linkonce_odr noundef ptr @_ZNK5folly14basic_fbstringIcSt11char_traitsIcESaIcENS_13fbstring_coreIcEEE4dataEv(ptr noundef nonnull align 8 dereferenceable(24) %0) #1 comdat align 2 {
  %2 = alloca ptr, align 8
  store ptr %0, ptr %2, align 8, !tbaa !19
  %3 = load ptr, ptr %2, align 8
  %4 = call noundef ptr @_ZNK5folly14basic_fbstringIcSt11char_traitsIcESaIcENS_13fbstring_coreIcEEE5c_strEv(ptr noundef nonnull align 8 dereferenceable(24) %3)
  ret ptr %4
}

; Function Attrs: mustprogress nounwind uwtable
define linkonce_odr noundef i64 @_ZNSt11char_traitsIcE6lengthEPKc(ptr noundef %0) #0 comdat align 2 {
  %2 = alloca ptr, align 8
  store ptr %0, ptr %2, align 8, !tbaa !15
  %3 = load ptr, ptr %2, align 8, !tbaa !15
  %4 = call i64 @strlen(ptr noundef %3) #19
  ret i64 %4
}

; Function Attrs: mustprogress uwtable
define available_externally void @_ZNSt9basic_iosIcSt11char_traitsIcEE8setstateESt12_Ios_Iostate(ptr noundef nonnull align 8 dereferenceable(264) %0, i32 noundef %1) #1 align 2 {
  %3 = alloca ptr, align 8
  %4 = alloca i32, align 4
  store ptr %0, ptr %3, align 8, !tbaa !31
  store i32 %1, ptr %4, align 4, !tbaa !33
  %5 = load ptr, ptr %3, align 8
  %6 = call noundef i32 @_ZNKSt9basic_iosIcSt11char_traitsIcEE7rdstateEv(ptr noundef nonnull align 8 dereferenceable(264) %5)
  %7 = load i32, ptr %4, align 4, !tbaa !33
  %8 = call noundef i32 @_ZStorSt12_Ios_IostateS_(i32 noundef %6, i32 noundef %7)
  call void @_ZNSt9basic_iosIcSt11char_traitsIcEE5clearESt12_Ios_Iostate(ptr noundef nonnull align 8 dereferenceable(264) %5, i32 noundef %8)
  ret void
}

; Function Attrs: inlinehint mustprogress nounwind uwtable
define linkonce_odr void @_ZNSt15__exception_ptr13exception_ptrD2Ev(ptr noundef nonnull align 8 dereferenceable(8) %0) unnamed_addr #7 comdat align 2 {
  %2 = alloca ptr, align 8
  store ptr %0, ptr %2, align 8, !tbaa !23
  %3 = load ptr, ptr %2, align 8
  %4 = getelementptr inbounds nuw %"class.std::__exception_ptr::exception_ptr", ptr %3, i32 0, i32 0
  %5 = load ptr, ptr %4, align 8, !tbaa !25
  %6 = icmp ne ptr %5, null
  br i1 %6, label %7, label %8

7:                                                ; preds = %1
  call void @_ZNSt15__exception_ptr13exception_ptr10_M_releaseEv(ptr noundef nonnull align 8 dereferenceable(8) %3) #19
  br label %8

8:                                                ; preds = %7, %1
  ret void
}

; Function Attrs: mustprogress nounwind uwtable
define linkonce_odr void @_ZN5folly14basic_fbstringIcSt11char_traitsIcESaIcENS_13fbstring_coreIcEEED2Ev(ptr noundef nonnull align 8 dereferenceable(24) %0) unnamed_addr #0 comdat align 2 {
  %2 = alloca ptr, align 8
  store ptr %0, ptr %2, align 8, !tbaa !19
  %3 = load ptr, ptr %2, align 8
  %4 = getelementptr inbounds nuw %"class.folly::basic_fbstring", ptr %3, i32 0, i32 0
  call void @_ZN5folly13fbstring_coreIcED2Ev(ptr noundef nonnull align 8 dereferenceable(24) %4) #19
  ret void
}

; Function Attrs: inlinehint mustprogress uwtable
define linkonce_odr noundef nonnull align 8 dereferenceable(8) ptr @_ZN5follylsIcSt11char_traitsIcESaIcENS_13fbstring_coreIcEEEERSt13basic_ostreamINS_14basic_fbstringIT_T0_T1_T2_E10value_typeENSC_11traits_typeEESG_RKSC_(ptr noundef nonnull align 8 dereferenceable(8) %0, ptr noundef nonnull align 8 dereferenceable(24) %1) #4 comdat {
  %3 = alloca ptr, align 8
  %4 = alloca ptr, align 8
  store ptr %0, ptr %3, align 8, !tbaa !17
  store ptr %1, ptr %4, align 8, !tbaa !19
  %5 = load ptr, ptr %3, align 8, !tbaa !17
  %6 = load ptr, ptr %4, align 8, !tbaa !19
  %7 = call noundef ptr @_ZNK5folly14basic_fbstringIcSt11char_traitsIcESaIcENS_13fbstring_coreIcEEE4dataEv(ptr noundef nonnull align 8 dereferenceable(24) %6)
  %8 = load ptr, ptr %4, align 8, !tbaa !19
  %9 = call noundef i64 @_ZNK5folly14basic_fbstringIcSt11char_traitsIcESaIcENS_13fbstring_coreIcEEE4sizeEv(ptr noundef nonnull align 8 dereferenceable(24) %8)
  %10 = call noundef nonnull align 8 dereferenceable(8) ptr @_ZSt16__ostream_insertIcSt11char_traitsIcEERSt13basic_ostreamIT_T0_ES6_PKS3_l(ptr noundef nonnull align 8 dereferenceable(8) %5, ptr noundef %7, i64 noundef %9)
  %11 = load ptr, ptr %3, align 8, !tbaa !17
  ret ptr %11
}

; Function Attrs: inlinehint mustprogress uwtable
define available_externally noundef nonnull align 8 dereferenceable(8) ptr @_ZStlsISt11char_traitsIcEERSt13basic_ostreamIcT_ES5_PKc(ptr noundef nonnull align 8 dereferenceable(8) %0, ptr noundef %1) #4 {
  %3 = alloca ptr, align 8
  %4 = alloca ptr, align 8
  store ptr %0, ptr %3, align 8, !tbaa !17
  store ptr %1, ptr %4, align 8, !tbaa !15
  %5 = load ptr, ptr %4, align 8, !tbaa !15
  %6 = icmp ne ptr %5, null
  br i1 %6, label %13, label %7

7:                                                ; preds = %2
  %8 = load ptr, ptr %3, align 8, !tbaa !17
  %9 = load ptr, ptr %8, align 8, !tbaa !21
  %10 = getelementptr i8, ptr %9, i64 -24
  %11 = load i64, ptr %10, align 8
  %12 = getelementptr inbounds i8, ptr %8, i64 %11
  call void @_ZNSt9basic_iosIcSt11char_traitsIcEE8setstateESt12_Ios_Iostate(ptr noundef nonnull align 8 dereferenceable(264) %12, i32 noundef 1)
  br label %19

13:                                               ; preds = %2
  %14 = load ptr, ptr %3, align 8, !tbaa !17
  %15 = load ptr, ptr %4, align 8, !tbaa !15
  %16 = load ptr, ptr %4, align 8, !tbaa !15
  %17 = call noundef i64 @_ZNSt11char_traitsIcE6lengthEPKc(ptr noundef %16)
  %18 = call noundef nonnull align 8 dereferenceable(8) ptr @_ZSt16__ostream_insertIcSt11char_traitsIcEERSt13basic_ostreamIT_T0_ES6_PKS3_l(ptr noundef nonnull align 8 dereferenceable(8) %14, ptr noundef %15, i64 noundef %17)
  br label %19

19:                                               ; preds = %13, %7
  %20 = load ptr, ptr %3, align 8, !tbaa !17
  ret ptr %20
}

; Function Attrs: mustprogress nounwind uwtable
define void @_ZN5folly8Executor21invokeCatchingExnsLogEPKc(ptr noundef %0) #0 align 2 personality ptr @__gxx_personality_v0 {
  %2 = alloca ptr, align 8
  %3 = alloca %"class.std::__exception_ptr::exception_ptr", align 8
  %4 = alloca %"class.google::LogMessage", align 8
  %5 = alloca %"class.folly::basic_fbstring", align 8
  store ptr %0, ptr %2, align 8, !tbaa !15
  call void @llvm.lifetime.start.p0(i64 8, ptr %3) #19
  call void @_ZN5folly17current_exceptionEv(ptr dead_on_unwind writable sret(%"class.std::__exception_ptr::exception_ptr") align 8 %3) #19
  call void @llvm.lifetime.start.p0(i64 16, ptr %4) #19
  invoke void @_ZN6google10LogMessageC1EPKcii(ptr noundef nonnull align 8 dereferenceable(16) %4, ptr noundef @.str, i32 noundef 31, i32 noundef 2)
          to label %6 unwind label %17

6:                                                ; preds = %1
  %7 = invoke noundef nonnull align 8 dereferenceable(8) ptr @_ZN6google10LogMessage6streamEv(ptr noundef nonnull align 8 dereferenceable(16) %4)
          to label %8 unwind label %17

8:                                                ; preds = %6
  %9 = load ptr, ptr %2, align 8, !tbaa !15
  %10 = invoke noundef nonnull align 8 dereferenceable(8) ptr @_ZStlsISt11char_traitsIcEERSt13basic_ostreamIcT_ES5_PKc(ptr noundef nonnull align 8 dereferenceable(8) %7, ptr noundef %9)
          to label %11 unwind label %17

11:                                               ; preds = %8
  %12 = invoke noundef nonnull align 8 dereferenceable(8) ptr @_ZStlsISt11char_traitsIcEERSt13basic_ostreamIcT_ES5_PKc(ptr noundef nonnull align 8 dereferenceable(8) %10, ptr noundef @.str.1)
          to label %13 unwind label %17

13:                                               ; preds = %11
  call void @llvm.lifetime.start.p0(i64 24, ptr %5) #19
  invoke void @_ZN5folly12exceptionStrERKNSt15__exception_ptr13exception_ptrE(ptr dead_on_unwind writable sret(%"class.folly::basic_fbstring") align 8 %5, ptr noundef nonnull align 8 dereferenceable(8) %3)
          to label %14 unwind label %17

14:                                               ; preds = %13
  %15 = invoke noundef nonnull align 8 dereferenceable(8) ptr @_ZN5follylsIcSt11char_traitsIcESaIcENS_13fbstring_coreIcEEEERSt13basic_ostreamINS_14basic_fbstringIT_T0_T1_T2_E10value_typeENSC_11traits_typeEESG_RKSC_(ptr noundef nonnull align 8 dereferenceable(8) %12, ptr noundef nonnull align 8 dereferenceable(24) %5)
          to label %16 unwind label %17

16:                                               ; preds = %14
  call void @_ZN5folly14basic_fbstringIcSt11char_traitsIcESaIcENS_13fbstring_coreIcEEED2Ev(ptr noundef nonnull align 8 dereferenceable(24) %5) #19
  call void @llvm.lifetime.end.p0(i64 24, ptr %5) #19
  call void @_ZN6google10LogMessageD1Ev(ptr noundef nonnull align 8 dereferenceable(16) %4) #19
  call void @llvm.lifetime.end.p0(i64 16, ptr %4) #19
  call void @_ZNSt15__exception_ptr13exception_ptrD2Ev(ptr noundef nonnull align 8 dereferenceable(8) %3) #19
  call void @llvm.lifetime.end.p0(i64 8, ptr %3) #19
  ret void

17:                                               ; preds = %14, %13, %11, %8, %6, %1
  %18 = landingpad { ptr, i32 }
          catch ptr null
  %19 = extractvalue { ptr, i32 } %18, 0
  call void @__clang_call_terminate(ptr %19) #18
  unreachable
}