; Function Attrs: mustprogress nounwind uwtable
define void @_ZN5folly8Executor21invokeCatchingExnsLogEPKc(ptr noundef %0) local_unnamed_addr #0 align 2 personality ptr @__gxx_personality_v0 {
  %2 = alloca %"class.std::__exception_ptr::exception_ptr", align 8
  %3 = alloca %"class.google::LogMessage", align 8
  %4 = alloca %"class.folly::basic_fbstring", align 8
  call void @llvm.lifetime.start.p0(i64 8, ptr nonnull %2) #24
  call void @_ZN5folly17current_exceptionEv(ptr dead_on_unwind nonnull writable sret(%"class.std::__exception_ptr::exception_ptr") align 8 %2) #24
  call void @llvm.lifetime.start.p0(i64 16, ptr nonnull %3) #24
  invoke void @_ZN6google10LogMessageC1EPKcii(ptr noundef nonnull align 8 dereferenceable(16) %3, ptr noundef nonnull @.str, i32 noundef 31, i32 noundef 2)
          to label %5 unwind label %38

5:                                                ; preds = %1
  %6 = invoke noundef nonnull align 8 dereferenceable(8) ptr @_ZN6google10LogMessage6streamEv(ptr noundef nonnull align 8 dereferenceable(16) %3)
          to label %7 unwind label %38

7:                                                ; preds = %5
  %.not.i = icmp eq ptr %0, null
  br i1 %.not.i, label %8, label %16

8:                                                ; preds = %7
  %9 = load ptr, ptr %6, align 8, !tbaa !7
  %10 = getelementptr i8, ptr %9, i64 -24
  %11 = load i64, ptr %10, align 8
  %12 = getelementptr inbounds i8, ptr %6, i64 %11
  %13 = getelementptr inbounds nuw i8, ptr %12, i64 32
  %14 = load i32, ptr %13, align 8, !tbaa !10
  %15 = or i32 %14, 1
  invoke void @_ZNSt9basic_iosIcSt11char_traitsIcEE5clearESt12_Ios_Iostate(ptr noundef nonnull align 8 dereferenceable(264) %12, i32 noundef %15)
          to label %_ZStlsISt11char_traitsIcEERSt13basic_ostreamIcT_ES5_PKc.exit unwind label %38

16:                                               ; preds = %7
  %17 = call noundef i64 @strlen(ptr noundef nonnull dereferenceable(1) %0) #24
  %18 = invoke noundef nonnull align 8 dereferenceable(8) ptr @_ZSt16__ostream_insertIcSt11char_traitsIcEERSt13basic_ostreamIT_T0_ES6_PKS3_l(ptr noundef nonnull align 8 dereferenceable(8) %6, ptr noundef nonnull %0, i64 noundef %17)
          to label %_ZStlsISt11char_traitsIcEERSt13basic_ostreamIcT_ES5_PKc.exit unwind label %38

_ZStlsISt11char_traitsIcEERSt13basic_ostreamIcT_ES5_PKc.exit: ; preds = %8, %16
  %19 = invoke noundef nonnull align 8 dereferenceable(8) ptr @_ZSt16__ostream_insertIcSt11char_traitsIcEERSt13basic_ostreamIT_T0_ES6_PKS3_l(ptr noundef nonnull align 8 dereferenceable(8) %6, ptr noundef nonnull @.str.1, i64 noundef 17)
          to label %_ZStlsISt11char_traitsIcEERSt13basic_ostreamIcT_ES5_PKc.exit3 unwind label %38

_ZStlsISt11char_traitsIcEERSt13basic_ostreamIcT_ES5_PKc.exit3: ; preds = %_ZStlsISt11char_traitsIcEERSt13basic_ostreamIcT_ES5_PKc.exit
  call void @llvm.lifetime.start.p0(i64 24, ptr nonnull %4) #24
  invoke void @_ZN5folly12exceptionStrERKNSt15__exception_ptr13exception_ptrE(ptr dead_on_unwind nonnull writable sret(%"class.folly::basic_fbstring") align 8 %4, ptr noundef nonnull align 8 dereferenceable(8) %2)
          to label %20 unwind label %38

20:                                               ; preds = %_ZStlsISt11char_traitsIcEERSt13basic_ostreamIcT_ES5_PKc.exit3
  %21 = load ptr, ptr %4, align 8, !tbaa !23
  %22 = getelementptr inbounds nuw i8, ptr %4, i64 23
  %23 = load i8, ptr %22, align 1, !tbaa !23
  %24 = icmp ult i8 %23, 64
  %25 = select i1 %24, ptr %4, ptr %21
  %26 = getelementptr inbounds nuw i8, ptr %4, i64 8
  %27 = load i64, ptr %26, align 8, !tbaa !23
  %28 = zext i8 %23 to i64
  %29 = sub nsw i64 23, %28
  %30 = icmp ult i8 %23, 24
  %31 = select i1 %30, i64 %29, i64 %27
  %32 = invoke noundef nonnull align 8 dereferenceable(8) ptr @_ZSt16__ostream_insertIcSt11char_traitsIcEERSt13basic_ostreamIT_T0_ES6_PKS3_l(ptr noundef nonnull align 8 dereferenceable(8) %6, ptr noundef %25, i64 noundef %31)
          to label %_ZN5follylsIcSt11char_traitsIcESaIcENS_13fbstring_coreIcEEEERSt13basic_ostreamINS_14basic_fbstringIT_T0_T1_T2_E10value_typeENSC_11traits_typeEESG_RKSC_.exit unwind label %38

_ZN5follylsIcSt11char_traitsIcESaIcENS_13fbstring_coreIcEEEERSt13basic_ostreamINS_14basic_fbstringIT_T0_T1_T2_E10value_typeENSC_11traits_typeEESG_RKSC_.exit: ; preds = %20
  %33 = load i8, ptr %22, align 1, !tbaa !23
  %34 = icmp ult i8 %33, 64
  br i1 %34, label %_ZN5folly14basic_fbstringIcSt11char_traitsIcESaIcENS_13fbstring_coreIcEEED2Ev.exit, label %35

35:                                               ; preds = %_ZN5follylsIcSt11char_traitsIcESaIcENS_13fbstring_coreIcEEEERSt13basic_ostreamINS_14basic_fbstringIT_T0_T1_T2_E10value_typeENSC_11traits_typeEESG_RKSC_.exit
  call void @_ZN5folly13fbstring_coreIcE18destroyMediumLargeEv(ptr noundef nonnull align 8 dereferenceable(24) %4) #24
  br label %_ZN5folly14basic_fbstringIcSt11char_traitsIcESaIcENS_13fbstring_coreIcEEED2Ev.exit

_ZN5folly14basic_fbstringIcSt11char_traitsIcESaIcENS_13fbstring_coreIcEEED2Ev.exit: ; preds = %_ZN5follylsIcSt11char_traitsIcESaIcENS_13fbstring_coreIcEEEERSt13basic_ostreamINS_14basic_fbstringIT_T0_T1_T2_E10value_typeENSC_11traits_typeEESG_RKSC_.exit, %35
  call void @llvm.lifetime.end.p0(i64 24, ptr nonnull %4) #24
  call void @_ZN6google10LogMessageD1Ev(ptr noundef nonnull align 8 dereferenceable(16) %3) #24
  call void @llvm.lifetime.end.p0(i64 16, ptr nonnull %3) #24
  %36 = load ptr, ptr %2, align 8, !tbaa !24
  %.not.i5 = icmp eq ptr %36, null
  br i1 %.not.i5, label %_ZNSt15__exception_ptr13exception_ptrD2Ev.exit, label %37

37:                                               ; preds = %_ZN5folly14basic_fbstringIcSt11char_traitsIcESaIcENS_13fbstring_coreIcEEED2Ev.exit
  call void @_ZNSt15__exception_ptr13exception_ptr10_M_releaseEv(ptr noundef nonnull align 8 dereferenceable(8) %2) #24
  br label %_ZNSt15__exception_ptr13exception_ptrD2Ev.exit

_ZNSt15__exception_ptr13exception_ptrD2Ev.exit:   ; preds = %_ZN5folly14basic_fbstringIcSt11char_traitsIcESaIcENS_13fbstring_coreIcEEED2Ev.exit, %37
  call void @llvm.lifetime.end.p0(i64 8, ptr nonnull %2) #24
  ret void

38:                                               ; preds = %20, %_ZStlsISt11char_traitsIcEERSt13basic_ostreamIcT_ES5_PKc.exit, %16, %8, %_ZStlsISt11char_traitsIcEERSt13basic_ostreamIcT_ES5_PKc.exit3, %5, %1
  %39 = landingpad { ptr, i32 }
          catch ptr null
  %40 = extractvalue { ptr, i32 } %39, 0
  call void @__clang_call_terminate(ptr %40) #23
  unreachable
}